target datalayout = "e-m:e-p270:32:32-p271:32:32-p272:64:64-i64:64-i128:128-f80:128-n8:16:32:64-S128"
target triple = "x86_64-pc-linux-gnu"

%struct.Vec_Int_t_ = type { i32, i32, ptr }
%struct.Abc_Ntk_t_ = type { i32, i32, ptr, ptr, ptr, ptr, ptr, ptr, ptr, ptr, ptr, ptr, ptr, [11 x i32], i32, i32, i32, i32, ptr, i32, ptr, ptr, i32, i32, i32, double, i32, %struct.Vec_Int_t_, ptr, ptr, ptr, ptr, ptr, float, i32, ptr, ptr, ptr, ptr, ptr, ptr, ptr, ptr, ptr, ptr, ptr, ptr, ptr, ptr, ptr, ptr, ptr, ptr, ptr, ptr, ptr, ptr }
%struct.Ivy_Obj_t_ = type { i32, i32, i32, i32, ptr, ptr, ptr, ptr, ptr, ptr, ptr, ptr }
%struct.Ivy_Man_t_ = type { ptr, ptr, ptr, ptr, ptr, %struct.Ivy_Obj_t_, [8 x i32], i32, i32, ptr, i32, i32, i32, i32, ptr, i32, ptr, ptr, ptr, i32, ptr, ptr, ptr, i64, i64 }
%struct.Ivy_FraigParams_t_ = type { i32, double, i32, i32, double, double, i32, i32, i32, i32, i32 }
%struct.Vec_Ptr_t_ = type { i32, i32, ptr }

; Function Attrs: inlinehint nounwind uwtable
define internal void @Vec_PtrFree(ptr noundef %0) #2 {
  %2 = alloca ptr, align 8
  store ptr %0, ptr %2, align 8, !tbaa !73
  %3 = load ptr, ptr %2, align 8, !tbaa !73
  %4 = getelementptr inbounds nuw %struct.Vec_Ptr_t_, ptr %3, i32 0, i32 2
  %5 = load ptr, ptr %4, align 8, !tbaa !81
  %6 = icmp ne ptr %5, null
  br i1 %6, label %7, label %13

7:                                                ; preds = %1
  %8 = load ptr, ptr %2, align 8, !tbaa !73
  %9 = getelementptr inbounds nuw %struct.Vec_Ptr_t_, ptr %8, i32 0, i32 2
  %10 = load ptr, ptr %9, align 8, !tbaa !81
  call void @free(ptr noundef %10) #11
  %11 = load ptr, ptr %2, align 8, !tbaa !73
  %12 = getelementptr inbounds nuw %struct.Vec_Ptr_t_, ptr %11, i32 0, i32 2
  store ptr null, ptr %12, align 8, !tbaa !81
  br label %14

13:                                               ; preds = %1
  br label %14

14:                                               ; preds = %13, %7
  %15 = load ptr, ptr %2, align 8, !tbaa !73
  %16 = icmp ne ptr %15, null
  br i1 %16, label %17, label %19

17:                                               ; preds = %14
  %18 = load ptr, ptr %2, align 8, !tbaa !73
  call void @free(ptr noundef %18) #11
  store ptr null, ptr %2, align 8, !tbaa !73
  br label %20

19:                                               ; preds = %14
  br label %20

20:                                               ; preds = %19, %17
  ret void
}

; Function Attrs: nounwind uwtable
define ptr @Abc_NtkIvyFraig(ptr noundef %0, i32 noundef %1, i32 noundef %2, i32 noundef %3, i32 noundef %4, i32 noundef %5) #0 {
  %7 = alloca ptr, align 8
  %8 = alloca ptr, align 8
  %9 = alloca i32, align 4
  %10 = alloca i32, align 4
  %11 = alloca i32, align 4
  %12 = alloca i32, align 4
  %13 = alloca i32, align 4
  %14 = alloca %struct.Ivy_FraigParams_t_, align 8
  %15 = alloca ptr, align 8
  %16 = alloca ptr, align 8
  %17 = alloca ptr, align 8
  %18 = alloca ptr, align 8
  %19 = alloca i32, align 4
  %20 = alloca ptr, align 8
  store ptr %0, ptr %8, align 8, !tbaa !3
  store i32 %1, ptr %9, align 4, !tbaa !8
  store i32 %2, ptr %10, align 4, !tbaa !8
  store i32 %3, ptr %11, align 4, !tbaa !8
  store i32 %4, ptr %12, align 4, !tbaa !8
  store i32 %5, ptr %13, align 4, !tbaa !8
  call void @llvm.lifetime.start.p0(i64 64, ptr %14) #11
  call void @llvm.lifetime.start.p0(i64 8, ptr %15) #11
  store ptr %14, ptr %15, align 8, !tbaa !61
  call void @llvm.lifetime.start.p0(i64 8, ptr %16) #11
  call void @llvm.lifetime.start.p0(i64 8, ptr %17) #11
  call void @llvm.lifetime.start.p0(i64 8, ptr %18) #11
  %21 = load ptr, ptr %8, align 8, !tbaa !3
  %22 = call ptr @Abc_NtkIvyBefore(ptr noundef %21, i32 noundef 0, i32 noundef 0)
  store ptr %22, ptr %17, align 8, !tbaa !10
  %23 = load ptr, ptr %17, align 8, !tbaa !10
  %24 = icmp eq ptr %23, null
  br i1 %24, label %25, label %26

25:                                               ; preds = %6
  store ptr null, ptr %7, align 8
  store i32 1, ptr %19, align 4
  br label %71

26:                                               ; preds = %6
  %27 = load ptr, ptr %15, align 8, !tbaa !61
  call void @Ivy_FraigParamsDefault(ptr noundef %27)
  %28 = load i32, ptr %9, align 4, !tbaa !8
  %29 = load ptr, ptr %15, align 8, !tbaa !61
  %30 = getelementptr inbounds nuw %struct.Ivy_FraigParams_t_, ptr %29, i32 0, i32 9
  store i32 %28, ptr %30, align 4, !tbaa !76
  %31 = load i32, ptr %13, align 4, !tbaa !8
  %32 = load ptr, ptr %15, align 8, !tbaa !61
  %33 = getelementptr inbounds nuw %struct.Ivy_FraigParams_t_, ptr %32, i32 0, i32 7
  store i32 %31, ptr %33, align 4, !tbaa !65
  %34 = load i32, ptr %11, align 4, !tbaa !8
  %35 = load ptr, ptr %15, align 8, !tbaa !61
  %36 = getelementptr inbounds nuw %struct.Ivy_FraigParams_t_, ptr %35, i32 0, i32 6
  store i32 %34, ptr %36, align 8, !tbaa !77
  %37 = load i32, ptr %10, align 4, !tbaa !8
  %38 = load ptr, ptr %15, align 8, !tbaa !61
  %39 = getelementptr inbounds nuw %struct.Ivy_FraigParams_t_, ptr %38, i32 0, i32 8
  store i32 %37, ptr %39, align 8, !tbaa !78
  %40 = load ptr, ptr %17, align 8, !tbaa !10
  store ptr %40, ptr %18, align 8, !tbaa !10
  %41 = load ptr, ptr %15, align 8, !tbaa !61
  %42 = call ptr @Ivy_FraigPerform(ptr noundef %40, ptr noundef %41)
  store ptr %42, ptr %17, align 8, !tbaa !10
  %43 = load i32, ptr %12, align 4, !tbaa !8
  %44 = icmp eq i32 %43, 1
  br i1 %44, label %45, label %56

45:                                               ; preds = %26
  call void @llvm.lifetime.start.p0(i64 8, ptr %20) #11
  %46 = load ptr, ptr %8, align 8, !tbaa !3
  %47 = call ptr @Abc_NtkSaveCopy(ptr noundef %46)
  store ptr %47, ptr %20, align 8, !tbaa !73
  %48 = load ptr, ptr %8, align 8, !tbaa !3
  %49 = load ptr, ptr %17, align 8, !tbaa !10
  %50 = call ptr @Abc_NtkIvyAfter(ptr noundef %48, ptr noundef %49, i32 noundef 0, i32 noundef 0)
  store ptr %50, ptr %16, align 8, !tbaa !3
  %51 = load ptr, ptr %8, align 8, !tbaa !3
  %52 = load ptr, ptr %20, align 8, !tbaa !73
  call void @Abc_NtkLoadCopy(ptr noundef %51, ptr noundef %52)
  %53 = load ptr, ptr %20, align 8, !tbaa !73
  call void @Vec_PtrFree(ptr noundef %53)
  %54 = load ptr, ptr %8, align 8, !tbaa !3
  %55 = load ptr, ptr %16, align 8, !tbaa !3
  call void @Abc_NtkTransferPointers(ptr noundef %54, ptr noundef %55)
  call void @llvm.lifetime.end.p0(i64 8, ptr %20) #11
  br label %60

56:                                               ; preds = %26
  %57 = load ptr, ptr %8, align 8, !tbaa !3
  %58 = load ptr, ptr %17, align 8, !tbaa !10
  %59 = call ptr @Abc_NtkIvyAfter(ptr noundef %57, ptr noundef %58, i32 noundef 0, i32 noundef 0)
  store ptr %59, ptr %16, align 8, !tbaa !3
  br label %60

60:                                               ; preds = %56, %45
  %61 = load ptr, ptr %17, align 8, !tbaa !10
  %62 = getelementptr inbounds nuw %struct.Ivy_Man_t_, ptr %61, i32 0, i32 16
  %63 = load ptr, ptr %62, align 8, !tbaa !79
  %64 = load ptr, ptr %16, align 8, !tbaa !3
  %65 = getelementptr inbounds nuw %struct.Abc_Ntk_t_, ptr %64, i32 0, i32 37
  store ptr %63, ptr %65, align 8, !tbaa !80
  %66 = load ptr, ptr %17, align 8, !tbaa !10
  %67 = getelementptr inbounds nuw %struct.Ivy_Man_t_, ptr %66, i32 0, i32 16
  store ptr null, ptr %67, align 8, !tbaa !79
  %68 = load ptr, ptr %18, align 8, !tbaa !10
  call void @Ivy_ManStop(ptr noundef %68)
  %69 = load ptr, ptr %17, align 8, !tbaa !10
  call void @Ivy_ManStop(ptr noundef %69)
  %70 = load ptr, ptr %16, align 8, !tbaa !3
  store ptr %70, ptr %7, align 8
  store i32 1, ptr %19, align 4
  br label %71

71:                                               ; preds = %60, %25
  call void @llvm.lifetime.end.p0(i64 8, ptr %18) #11
  call void @llvm.lifetime.end.p0(i64 8, ptr %17) #11
  call void @llvm.lifetime.end.p0(i64 8, ptr %16) #11
  call void @llvm.lifetime.end.p0(i64 8, ptr %15) #11
  call void @llvm.lifetime.end.p0(i64 64, ptr %14) #11
  %72 = load ptr, ptr %7, align 8
  ret ptr %72
}