; Function Attrs: nounwind uwtable
define noundef ptr @Abc_NtkIvyFraig(ptr noundef %0, i32 noundef %1, i32 noundef %2, i32 noundef %3, i32 noundef %4, i32 noundef %5) local_unnamed_addr #0 {
  %7 = alloca %struct.Ivy_FraigParams_t_, align 8
  call void @llvm.lifetime.start.p0(i64 64, ptr nonnull %7) #15
  %8 = tail call ptr @Abc_NtkIvyBefore(ptr noundef %0, i32 noundef 0, i32 noundef 0)
  %9 = icmp eq ptr %8, null
  br i1 %9, label %29, label %10

10:                                               ; preds = %6
  call void @Ivy_FraigParamsDefault(ptr noundef nonnull %7) #15
  %11 = getelementptr inbounds nuw i8, ptr %7, i64 52
  store i32 %1, ptr %11, align 4, !tbaa !95
  %12 = getelementptr inbounds nuw i8, ptr %7, i64 44
  store i32 %5, ptr %12, align 4, !tbaa !90
  %13 = getelementptr inbounds nuw i8, ptr %7, i64 40
  store i32 %3, ptr %13, align 8, !tbaa !96
  %14 = getelementptr inbounds nuw i8, ptr %7, i64 48
  store i32 %2, ptr %14, align 8, !tbaa !97
  %15 = call ptr @Ivy_FraigPerform(ptr noundef nonnull %8, ptr noundef nonnull %7) #15
  %16 = icmp eq i32 %4, 1
  br i1 %16, label %17, label %23

17:                                               ; preds = %10
  %18 = call ptr @Abc_NtkSaveCopy(ptr noundef %0) #15
  %19 = call ptr @Abc_NtkIvyAfter(ptr noundef %0, ptr noundef %15, i32 noundef 0, i32 noundef 0)
  call void @Abc_NtkLoadCopy(ptr noundef %0, ptr noundef %18) #15
  %20 = getelementptr inbounds nuw i8, ptr %18, i64 8
  %21 = load ptr, ptr %20, align 8, !tbaa !37
  %.not.i = icmp eq ptr %21, null
  br i1 %.not.i, label %Vec_PtrFree.exit, label %22

22:                                               ; preds = %17
  call void @free(ptr noundef nonnull %21) #15
  br label %Vec_PtrFree.exit

Vec_PtrFree.exit:                                 ; preds = %17, %22
  call void @free(ptr noundef nonnull %18) #15
  call void @Abc_NtkTransferPointers(ptr noundef %0, ptr noundef %19)
  br label %25

23:                                               ; preds = %10
  %24 = call ptr @Abc_NtkIvyAfter(ptr noundef %0, ptr noundef %15, i32 noundef 0, i32 noundef 0)
  br label %25

25:                                               ; preds = %23, %Vec_PtrFree.exit
  %.030 = phi ptr [ %19, %Vec_PtrFree.exit ], [ %24, %23 ]
  %26 = getelementptr inbounds nuw i8, ptr %15, i64 200
  %27 = load ptr, ptr %26, align 8, !tbaa !98
  %28 = getelementptr inbounds nuw i8, ptr %.030, i64 304
  store ptr %27, ptr %28, align 8, !tbaa !99
  store ptr null, ptr %26, align 8, !tbaa !98
  call void @Ivy_ManStop(ptr noundef nonnull %8) #15
  call void @Ivy_ManStop(ptr noundef %15) #15
  br label %29

29:                                               ; preds = %6, %25
  %.0 = phi ptr [ %.030, %25 ], [ null, %6 ]
  call void @llvm.lifetime.end.p0(i64 64, ptr nonnull %7) #15
  ret ptr %.0
}